target datalayout = "e-m:e-p270:32:32-p271:32:32-p272:64:64-i64:64-i128:128-f80:128-n8:16:32:64-S128"
target triple = "x86_64-pc-linux-gnu"

%struct.slurmdb_rollup_stats_t = type { ptr, [3 x i16], [3 x i64], [3 x i64], [3 x i64], [3 x i64] }

@.str.35 = private unnamed_addr constant [20 x i8] c" last ran %s (%ld)\0A\00", align 1
@.str.36 = private unnamed_addr constant [20 x i8] c"\09Last cycle:   %lu\0A\00", align 1
@.str.37 = private unnamed_addr constant [20 x i8] c"\09Max cycle:    %lu\0A\00", align 1
@.str.38 = private unnamed_addr constant [20 x i8] c"\09Total time:   %lu\0A\00", align 1
@.str.39 = private unnamed_addr constant [19 x i8] c"\09Total cycles: %u\0A\00", align 1
@.str.40 = private unnamed_addr constant [20 x i8] c"\09Mean cycle:   %lu\0A\00", align 1

; Function Attrs: nounwind uwtable
define internal void @_print_rollup_stats(ptr noundef %0, i32 noundef %1) #0 {
  %3 = alloca ptr, align 8
  %4 = alloca i32, align 4
  %5 = alloca i64, align 8
  %6 = alloca i32, align 4
  store ptr %0, ptr %3, align 8
  store i32 %1, ptr %4, align 4
  call void @llvm.lifetime.start.p0(i64 8, ptr %5) #5
  %7 = load ptr, ptr %3, align 8
  %8 = icmp ne ptr %7, null
  br i1 %8, label %10, label %9

9:                                                ; preds = %2
  store i32 1, ptr %6, align 4
  br label %80

10:                                               ; preds = %2
  %11 = load ptr, ptr %3, align 8
  %12 = getelementptr inbounds nuw %struct.slurmdb_rollup_stats_t, ptr %11, i32 0, i32 2
  %13 = load i32, ptr %4, align 4
  %14 = sext i32 %13 to i64
  %15 = getelementptr inbounds [3 x i64], ptr %12, i64 0, i64 %14
  %16 = call ptr @slurm_ctime2(ptr noundef %15)
  %17 = load ptr, ptr %3, align 8
  %18 = getelementptr inbounds nuw %struct.slurmdb_rollup_stats_t, ptr %17, i32 0, i32 2
  %19 = load i32, ptr %4, align 4
  %20 = sext i32 %19 to i64
  %21 = getelementptr inbounds [3 x i64], ptr %18, i64 0, i64 %20
  %22 = load i64, ptr %21, align 8
  %23 = call i32 (ptr, ...) @printf(ptr noundef @.str.35, ptr noundef %16, i64 noundef %22)
  %24 = load ptr, ptr %3, align 8
  %25 = getelementptr inbounds nuw %struct.slurmdb_rollup_stats_t, ptr %24, i32 0, i32 5
  %26 = load i32, ptr %4, align 4
  %27 = sext i32 %26 to i64
  %28 = getelementptr inbounds [3 x i64], ptr %25, i64 0, i64 %27
  %29 = load i64, ptr %28, align 8
  store i64 %29, ptr %5, align 8
  %30 = load ptr, ptr %3, align 8
  %31 = getelementptr inbounds nuw %struct.slurmdb_rollup_stats_t, ptr %30, i32 0, i32 1
  %32 = load i32, ptr %4, align 4
  %33 = sext i32 %32 to i64
  %34 = getelementptr inbounds [3 x i16], ptr %31, i64 0, i64 %33
  %35 = load i16, ptr %34, align 2
  %36 = zext i16 %35 to i32
  %37 = icmp sgt i32 %36, 1
  br i1 %37, label %38, label %48

38:                                               ; preds = %10
  %39 = load ptr, ptr %3, align 8
  %40 = getelementptr inbounds nuw %struct.slurmdb_rollup_stats_t, ptr %39, i32 0, i32 1
  %41 = load i32, ptr %4, align 4
  %42 = sext i32 %41 to i64
  %43 = getelementptr inbounds [3 x i16], ptr %40, i64 0, i64 %42
  %44 = load i16, ptr %43, align 2
  %45 = zext i16 %44 to i64
  %46 = load i64, ptr %5, align 8
  %47 = udiv i64 %46, %45
  store i64 %47, ptr %5, align 8
  br label %48

48:                                               ; preds = %38, %10
  %49 = load ptr, ptr %3, align 8
  %50 = getelementptr inbounds nuw %struct.slurmdb_rollup_stats_t, ptr %49, i32 0, i32 3
  %51 = load i32, ptr %4, align 4
  %52 = sext i32 %51 to i64
  %53 = getelementptr inbounds [3 x i64], ptr %50, i64 0, i64 %52
  %54 = load i64, ptr %53, align 8
  %55 = call i32 (ptr, ...) @printf(ptr noundef @.str.36, i64 noundef %54)
  %56 = load ptr, ptr %3, align 8
  %57 = getelementptr inbounds nuw %struct.slurmdb_rollup_stats_t, ptr %56, i32 0, i32 4
  %58 = load i32, ptr %4, align 4
  %59 = sext i32 %58 to i64
  %60 = getelementptr inbounds [3 x i64], ptr %57, i64 0, i64 %59
  %61 = load i64, ptr %60, align 8
  %62 = call i32 (ptr, ...) @printf(ptr noundef @.str.37, i64 noundef %61)
  %63 = load ptr, ptr %3, align 8
  %64 = getelementptr inbounds nuw %struct.slurmdb_rollup_stats_t, ptr %63, i32 0, i32 5
  %65 = load i32, ptr %4, align 4
  %66 = sext i32 %65 to i64
  %67 = getelementptr inbounds [3 x i64], ptr %64, i64 0, i64 %66
  %68 = load i64, ptr %67, align 8
  %69 = call i32 (ptr, ...) @printf(ptr noundef @.str.38, i64 noundef %68)
  %70 = load ptr, ptr %3, align 8
  %71 = getelementptr inbounds nuw %struct.slurmdb_rollup_stats_t, ptr %70, i32 0, i32 1
  %72 = load i32, ptr %4, align 4
  %73 = sext i32 %72 to i64
  %74 = getelementptr inbounds [3 x i16], ptr %71, i64 0, i64 %73
  %75 = load i16, ptr %74, align 2
  %76 = zext i16 %75 to i32
  %77 = call i32 (ptr, ...) @printf(ptr noundef @.str.39, i32 noundef %76)
  %78 = load i64, ptr %5, align 8
  %79 = call i32 (ptr, ...) @printf(ptr noundef @.str.40, i64 noundef %78)
  store i32 0, ptr %6, align 4
  br label %80

80:                                               ; preds = %48, %9
  call void @llvm.lifetime.end.p0(i64 8, ptr %5) #5
  %81 = load i32, ptr %6, align 4
  switch i32 %81, label %83 [
    i32 0, label %82
    i32 1, label %82
  ]

82:                                               ; preds = %80, %80
  ret void

83:                                               ; preds = %80
  unreachable
}