; Function Attrs: nounwind uwtable
define internal fastcc void @_print_rollup_stats(ptr noundef %0, i32 noundef range(i32 -2147483648, 3) %1) unnamed_addr #0 {
  %.not = icmp eq ptr %0, null
  br i1 %.not, label %35, label %3

3:                                                ; preds = %2
  %4 = getelementptr inbounds nuw i8, ptr %0, i64 16
  %5 = sext i32 %1 to i64
  %6 = getelementptr inbounds [3 x i64], ptr %4, i64 0, i64 %5
  %7 = tail call ptr @slurm_ctime2(ptr noundef nonnull %6) #8
  %8 = load i64, ptr %6, align 8
  %9 = tail call i32 (ptr, ...) @printf(ptr noundef nonnull dereferenceable(1) @.str.35, ptr noundef %7, i64 noundef %8)
  %10 = getelementptr inbounds nuw i8, ptr %0, i64 88
  %11 = getelementptr inbounds [3 x i64], ptr %10, i64 0, i64 %5
  %12 = load i64, ptr %11, align 8
  %13 = getelementptr inbounds nuw i8, ptr %0, i64 8
  %14 = getelementptr inbounds [3 x i16], ptr %13, i64 0, i64 %5
  %15 = load i16, ptr %14, align 2
  %16 = icmp ugt i16 %15, 1
  br i1 %16, label %17, label %20

17:                                               ; preds = %3
  %18 = zext i16 %15 to i64
  %19 = udiv i64 %12, %18
  br label %20

20:                                               ; preds = %17, %3
  %.0 = phi i64 [ %19, %17 ], [ %12, %3 ]
  %21 = getelementptr inbounds nuw i8, ptr %0, i64 40
  %22 = getelementptr inbounds [3 x i64], ptr %21, i64 0, i64 %5
  %23 = load i64, ptr %22, align 8
  %24 = tail call i32 (ptr, ...) @printf(ptr noundef nonnull dereferenceable(1) @.str.36, i64 noundef %23)
  %25 = getelementptr inbounds nuw i8, ptr %0, i64 64
  %26 = getelementptr inbounds [3 x i64], ptr %25, i64 0, i64 %5
  %27 = load i64, ptr %26, align 8
  %28 = tail call i32 (ptr, ...) @printf(ptr noundef nonnull dereferenceable(1) @.str.37, i64 noundef %27)
  %29 = load i64, ptr %11, align 8
  %30 = tail call i32 (ptr, ...) @printf(ptr noundef nonnull dereferenceable(1) @.str.38, i64 noundef %29)
  %31 = load i16, ptr %14, align 2
  %32 = zext i16 %31 to i32
  %33 = tail call i32 (ptr, ...) @printf(ptr noundef nonnull dereferenceable(1) @.str.39, i32 noundef %32)
  %34 = tail call i32 (ptr, ...) @printf(ptr noundef nonnull dereferenceable(1) @.str.40, i64 noundef %.0)
  br label %35

35:                                               ; preds = %2, %20
  ret void
}